(dp1
S'3'
(I33
(lp2
F0.14499999999999999
aF0.029000000000000001
aF0.108
aF0.066000000000000003
aF0.086999999999999994
aF0.186
aF0.066000000000000003
aF0.22700000000000001
aF0.26400000000000001
atp3
sS'2'
(I32
(lp4
F0.14999999999999999
aF0.002
aF0.155
aF0.051999999999999998
aF0.13
aF0.23200000000000001
aF0.080000000000000002
aF0.28299999999999997
aF0.158
atp5
sS'5'
(I31
(lp6
F0.14199999999999999
aF0.159
aF0.115
aF0.11
aF0.080000000000000002
aF0.14599999999999999
aF0.111
aF0.14499999999999999
aF0.247
atp7
sS'4'
(I29
(lp8
F0.033000000000000002
aF0.19800000000000001
aF0.056000000000000001
aF0.10100000000000001
aF0.14499999999999999
aF0.14799999999999999
aF0.066000000000000003
aF0.115
aF0.186
atp9
sS'7'
(I32
(lp10
F0.079000000000000001
aF0.0080000000000000002
aF0.035000000000000003
aF0.083000000000000004
aF0.13200000000000001
aF0.24199999999999999
aF0.16400000000000001
aF0.25
aF0
atp11
sS'6'
(I37
(lp12
F0.17399999999999999
aF0.26300000000000001
aF0.128
aF0.065000000000000002
aF0.085000000000000006
aF0.075999999999999998
aF0.11899999999999999
aF0.20399999999999999
aF0.23400000000000001
atp13
sS'9'
(I33
(lp14
F0.19900000000000001
aF0.183
aF0.10000000000000001
aF0.033000000000000002
aF0.16800000000000001
aF0.161
aF0.074999999999999997
aF0.28100000000000003
aF0.20499999999999999
atp15
sS'8'
(I34
(lp16
F0.14799999999999999
aF0
aF0.13900000000000001
aF0.086999999999999994
aF0.17399999999999999
aF0.16300000000000001
aF0.14499999999999999
aF0.23200000000000001
aF0.18099999999999999
atp17
sS'A'
(I78
(lp18
F0.034000000000000002
aF0.115
aF0.16300000000000001
aF0.040000000000000001
aF0.108
aF0.073999999999999996
aF0.060999999999999999
aF0.129
aF0.14799999999999999
atp19
sS'C'
(I36
(lp20
F0.17000000000000001
aF0.23899999999999999
aF0.058000000000000003
aF0.115
aF0
aF0.112
aF0.053999999999999999
aF0.0040000000000000001
aF0.20300000000000001
atp21
sS'B'
(I36
(lp22
F0.14399999999999999
aF0.21299999999999999
aF0.17999999999999999
aF0.062
aF0.096000000000000002
aF0.14199999999999999
aF0.085000000000000006
aF0.23499999999999999
aF0.25800000000000001
atp23
sS'E'
(I45
(lp24
F0.108
aF0.161
aF0.106
aF0.122
aF0.19900000000000001
aF0.10100000000000001
aF0.072999999999999995
aF0.13900000000000001
aF0.127
atp25
sS'D'
(I44
(lp26
F0.109
aF0.20000000000000001
aF0.16200000000000001
aF0.067000000000000004
aF0
aF0.16200000000000001
aF0.044999999999999998
aF0.19500000000000001
aF0.20699999999999999
atp27
sS'G'
(I39
(lp28
F0.14199999999999999
aF0.155
aF0.089999999999999997
aF0.122
aF0.035000000000000003
aF0.113
aF0.10199999999999999
aF0.14099999999999999
aF0.157
atp29
sS'F'
(I39
(lp30
F0.14999999999999999
aF0.157
aF0.17599999999999999
aF0.105
aF0.076999999999999999
aF0
aF0.189
aF0
aF0.099000000000000005
atp31
sS'H'
(I40
(lp32
F0.105
aF0.22700000000000001
aF0.14499999999999999
aF0.041000000000000002
aF0.14000000000000001
aF0.025000000000000001
aF0.17000000000000001
aF0.255
aF0.17799999999999999
atp33
sS'K'
(I39
(lp34
F0.108
aF0.20599999999999999
aF0.20499999999999999
aF0.056000000000000001
aF0.161
aF0.021999999999999999
aF0.16400000000000001
aF0
aF0.099000000000000005
atp35
sS'M'
(I40
(lp36
F0.053999999999999999
aF0.16
aF0.17499999999999999
aF0.021999999999999999
aF0.23799999999999999
aF0.070000000000000007
aF0.13500000000000001
aF0.22600000000000001
aF0.22500000000000001
atp37
sS'N'
(I36
(lp38
F0.014999999999999999
aF0.049000000000000002
aF0.090999999999999998
aF0
aF0.068000000000000005
aF0.028000000000000001
aF0.14399999999999999
aF0.254
aF0.254
atp39
sS'P'
(I32
(lp40
F0.16700000000000001
aF0.17100000000000001
aF0.127
aF0.085999999999999993
aF0.13700000000000001
aF0.114
aF0.069000000000000006
aF0.314
aF0.14999999999999999
atp41
sS'S'
(I36
(lp42
F0.122
aF0.17999999999999999
aF0.121
aF0.122
aF0.17999999999999999
aF0.16600000000000001
aF0.14999999999999999
aF0.127
aF0.186
atp43
sS'R'
(I18
(lp44
F0.22
aF0.28799999999999998
aF0.34100000000000003
aF0.129
aF0.22700000000000001
aF0.111
aF0.029999999999999999
aF0.106
aF0
atp45
sS'T'
(I69
(lp46
F0.111
aF0.13600000000000001
aF0.104
aF0.129
aF0.107
aF0.10199999999999999
aF0.11600000000000001
aF0.13400000000000001
aF0.156
atp47
sS'W'
(I59
(lp48
F0.13600000000000001
aF0.23499999999999999
aF0.161
aF0.14499999999999999
aF0.158
aF0.14000000000000001
aF0.13500000000000001
aF0.128
aF0.14199999999999999
atp49
sS'V'
(I45
(lp50
F0.14199999999999999
aF0.217
aF0.156
aF0.14399999999999999
aF0.122
aF0.122
aF0.16200000000000001
aF0.13700000000000001
aF0.157
atp51
sS'Y'
(I43
(lp52
F0.049000000000000002
aF0.13
aF0.114
aF0.085999999999999993
aF0.20499999999999999
aF0.11899999999999999
aF0.16300000000000001
aF0.035999999999999997
aF0.104
atp53
sS'X'
(I61
(lp54
F0.016
aF0.029000000000000001
aF0.184
aF0.068000000000000005
aF0.161
aF0.045999999999999999
aF0.184
aF0.076999999999999999
aF0.081000000000000003
atp55
sS'Z'
(I55
(lp56
F0.055
aF0.111
aF0.16600000000000001
aF0.113
aF0.17799999999999999
aF0.056000000000000001
aF0.079000000000000001
aF0.085000000000000006
aF0.12
atp57
s.