(dp1
S'3'
(I33
(lp2
F0.14499999999999999
aF0.029000000000000001
aF0.108
aF0.066000000000000003
aF0.086999999999999994
aF0.186
aF0.066000000000000003
aF0.22700000000000001
aF0.26400000000000001
atp3
sS'2'
(I32
(lp4
F0.151
aF0.001
aF0.152
aF0.058999999999999997
aF0.14199999999999999
aF0.21099999999999999
aF0.090999999999999998
aF0.26900000000000002
aF0.161
atp5
sS'5'
(I32
(lp6
F0.14099999999999999
aF0.159
aF0.11700000000000001
aF0.111
aF0.074999999999999997
aF0.14599999999999999
aF0.107
aF0.17999999999999999
aF0.26600000000000001
atp7
sS'4'
(I37
(lp8
F0.001
aF0.252
aF0.070999999999999994
aF0.108
aF0.085999999999999993
aF0.088999999999999996
aF0.155
aF0.249
aF0.20999999999999999
atp9
sS'7'
(I32
(lp10
F0.079000000000000001
aF0.0080000000000000002
aF0.035000000000000003
aF0.083000000000000004
aF0.13200000000000001
aF0.24199999999999999
aF0.16400000000000001
aF0.25
aF0
atp11
sS'6'
(I36
(lp12
F0.185
aF0.28299999999999997
aF0.114
aF0.079000000000000001
aF0.075999999999999998
aF0.095000000000000001
aF0.112
aF0.19700000000000001
aF0.23000000000000001
atp13
sS'9'
(I32
(lp14
F0.20100000000000001
aF0.17799999999999999
aF0.096000000000000002
aF0.036999999999999998
aF0.161
aF0.16400000000000001
aF0.068000000000000005
aF0.28399999999999997
aF0.20000000000000001
atp15
sS'8'
(I33
(lp16
F0.16700000000000001
aF0.11600000000000001
aF0.123
aF0.088999999999999996
aF0.122
aF0.16
aF0.115
aF0.23000000000000001
aF0.216
atp17
sS'A'
(I52
(lp18
F0.040000000000000001
aF0.13400000000000001
aF0.20899999999999999
aF0.084000000000000005
aF0.108
aF0.107
aF0.057000000000000002
aF0.13500000000000001
aF0.182
atp19
sS'C'
(I36
(lp20
F0.16900000000000001
aF0.23599999999999999
aF0.058000000000000003
aF0.11799999999999999
aF0.001
aF0.114
aF0.052999999999999999
aF0.0040000000000000001
aF0.20399999999999999
atp21
sS'B'
(I35
(lp22
F0.14799999999999999
aF0.216
aF0.17699999999999999
aF0.064000000000000001
aF0.095000000000000001
aF0.14399999999999999
aF0.084000000000000005
aF0.24099999999999999
aF0.255
atp23
sS'E'
(I47
(lp24
F0.10199999999999999
aF0.14899999999999999
aF0.121
aF0.11799999999999999
aF0.21299999999999999
aF0.105
aF0.071999999999999995
aF0.13400000000000001
aF0.121
atp25
sS'D'
(I44
(lp26
F0.109
aF0.20000000000000001
aF0.16200000000000001
aF0.067000000000000004
aF0
aF0.16200000000000001
aF0.044999999999999998
aF0.19500000000000001
aF0.20699999999999999
atp27
sS'G'
(I33
(lp28
F0.16200000000000001
aF0.217
aF0.057000000000000002
aF0.14399999999999999
aF0.017000000000000001
aF0.121
aF0.088999999999999996
aF0.11899999999999999
aF0.159
atp29
sS'F'
(I39
(lp30
F0.14999999999999999
aF0.157
aF0.17599999999999999
aF0.105
aF0.076999999999999999
aF0
aF0.189
aF0
aF0.099000000000000005
atp31
sS'H'
(I40
(lp32
F0.14000000000000001
aF0.21099999999999999
aF0.17100000000000001
aF0.012999999999999999
aF0.13900000000000001
aF0.0060000000000000001
aF0.16400000000000001
aF0.24399999999999999
aF0.17799999999999999
atp33
sS'K'
(I39
(lp34
F0.113
aF0.21199999999999999
aF0.19700000000000001
aF0.087999999999999995
aF0.14899999999999999
aF0.017000000000000001
aF0.154
aF0
aF0.098000000000000004
atp35
sS'M'
(I41
(lp36
F0.053999999999999999
aF0.17000000000000001
aF0.17100000000000001
aF0.02
aF0.22
aF0.074999999999999997
aF0.13200000000000001
aF0.222
aF0.21099999999999999
atp37
sS'N'
(I36
(lp38
F0.029000000000000001
aF0.105
aF0.122
aF0.0050000000000000001
aF0.068000000000000005
aF0.021000000000000001
aF0.14199999999999999
aF0.24299999999999999
aF0.24199999999999999
atp39
sS'P'
(I32
(lp40
F0.17000000000000001
aF0.20899999999999999
aF0.22800000000000001
aF0.076999999999999999
aF0.129
aF0.029000000000000001
aF0.056000000000000001
aF0.27700000000000002
aF0.036999999999999998
atp41
sS'S'
(I38
(lp42
F0.112
aF0.092999999999999999
aF0.14999999999999999
aF0.13
aF0.19400000000000001
aF0.16300000000000001
aF0.13100000000000001
aF0.085999999999999993
aF0.18099999999999999
atp43
sS'R'
(I33
(lp44
F0.17799999999999999
aF0.253
aF0.24399999999999999
aF0.062
aF0.13400000000000001
aF0.028000000000000001
aF0.052999999999999999
aF0.161
aF0.059999999999999998
atp45
sS'T'
(I47
(lp46
F0.115
aF0.086999999999999994
aF0.069000000000000006
aF0.112
aF0.114
aF0.115
aF0.16300000000000001
aF0.16200000000000001
aF0.13400000000000001
atp47
sS'W'
(I45
(lp48
F0.11
aF0.21099999999999999
aF0.16700000000000001
aF0.13600000000000001
aF0.20499999999999999
aF0.095000000000000001
aF0.13700000000000001
aF0.161
aF0.14899999999999999
atp49
sS'V'
(I40
(lp50
F0.067000000000000004
aF0.17699999999999999
aF0.044999999999999998
aF0.035999999999999997
aF0.081000000000000003
aF0.19900000000000001
aF0.158
aF0.23200000000000001
aF0.042000000000000003
atp51
sS'Y'
(I47
(lp52
F0.058999999999999997
aF0.14799999999999999
aF0.13500000000000001
aF0.112
aF0.152
aF0.091999999999999998
aF0.124
aF0.040000000000000001
aF0.13100000000000001
atp53
sS'X'
(I46
(lp54
F0.0070000000000000001
aF0.010999999999999999
aF0.21099999999999999
aF0.043999999999999997
aF0.182
aF0.029999999999999999
aF0.188
aF0.067000000000000004
aF0.070000000000000007
atp55
sS'Z'
(I46
(lp56
F0.056000000000000001
aF0.089999999999999997
aF0.17899999999999999
aF0.107
aF0.23499999999999999
aF0.066000000000000003
aF0.090999999999999998
aF0.066000000000000003
aF0.13
atp57
s.